target datalayout = "e-m:e-p270:32:32-p271:32:32-p272:64:64-i64:64-i128:128-f80:128-n8:16:32:64-S128"
target triple = "x86_64-pc-linux-gnu"

%struct.stbi__bmp_data = type { i32, i32, i32, i32, i32, i32, i32, i32, i32 }

; Function Attrs: mustprogress nounwind uwtable
define internal noundef i32 @_ZL27stbi__bmp_set_mask_defaultsP14stbi__bmp_datai(ptr noundef %0, i32 noundef %1) #0 {
  %3 = alloca i32, align 4
  %4 = alloca ptr, align 8
  %5 = alloca i32, align 4
  store ptr %0, ptr %4, align 8, !tbaa !9
  store i32 %1, ptr %5, align 4, !tbaa !10
  %6 = load i32, ptr %5, align 4, !tbaa !10
  %7 = icmp eq i32 %6, 3
  br i1 %7, label %8, label %9

8:                                                ; preds = %2
  store i32 1, ptr %3, align 4
  br label %52

9:                                                ; preds = %2
  %10 = load i32, ptr %5, align 4, !tbaa !10
  %11 = icmp eq i32 %10, 0
  br i1 %11, label %12, label %51

12:                                               ; preds = %9
  %13 = load ptr, ptr %4, align 8, !tbaa !9
  %14 = getelementptr inbounds nuw %struct.stbi__bmp_data, ptr %13, i32 0, i32 0
  %15 = load i32, ptr %14, align 4, !tbaa !70
  %16 = icmp eq i32 %15, 16
  br i1 %16, label %17, label %24

17:                                               ; preds = %12
  %18 = load ptr, ptr %4, align 8, !tbaa !9
  %19 = getelementptr inbounds nuw %struct.stbi__bmp_data, ptr %18, i32 0, i32 3
  store i32 31744, ptr %19, align 4, !tbaa !65
  %20 = load ptr, ptr %4, align 8, !tbaa !9
  %21 = getelementptr inbounds nuw %struct.stbi__bmp_data, ptr %20, i32 0, i32 4
  store i32 992, ptr %21, align 4, !tbaa !66
  %22 = load ptr, ptr %4, align 8, !tbaa !9
  %23 = getelementptr inbounds nuw %struct.stbi__bmp_data, ptr %22, i32 0, i32 5
  store i32 31, ptr %23, align 4, !tbaa !67
  br label %50

24:                                               ; preds = %12
  %25 = load ptr, ptr %4, align 8, !tbaa !9
  %26 = getelementptr inbounds nuw %struct.stbi__bmp_data, ptr %25, i32 0, i32 0
  %27 = load i32, ptr %26, align 4, !tbaa !70
  %28 = icmp eq i32 %27, 32
  br i1 %28, label %29, label %40

29:                                               ; preds = %24
  %30 = load ptr, ptr %4, align 8, !tbaa !9
  %31 = getelementptr inbounds nuw %struct.stbi__bmp_data, ptr %30, i32 0, i32 3
  store i32 16711680, ptr %31, align 4, !tbaa !65
  %32 = load ptr, ptr %4, align 8, !tbaa !9
  %33 = getelementptr inbounds nuw %struct.stbi__bmp_data, ptr %32, i32 0, i32 4
  store i32 65280, ptr %33, align 4, !tbaa !66
  %34 = load ptr, ptr %4, align 8, !tbaa !9
  %35 = getelementptr inbounds nuw %struct.stbi__bmp_data, ptr %34, i32 0, i32 5
  store i32 255, ptr %35, align 4, !tbaa !67
  %36 = load ptr, ptr %4, align 8, !tbaa !9
  %37 = getelementptr inbounds nuw %struct.stbi__bmp_data, ptr %36, i32 0, i32 6
  store i32 -16777216, ptr %37, align 4, !tbaa !68
  %38 = load ptr, ptr %4, align 8, !tbaa !9
  %39 = getelementptr inbounds nuw %struct.stbi__bmp_data, ptr %38, i32 0, i32 7
  store i32 0, ptr %39, align 4, !tbaa !61
  br label %49

40:                                               ; preds = %24
  %41 = load ptr, ptr %4, align 8, !tbaa !9
  %42 = getelementptr inbounds nuw %struct.stbi__bmp_data, ptr %41, i32 0, i32 6
  store i32 0, ptr %42, align 4, !tbaa !68
  %43 = load ptr, ptr %4, align 8, !tbaa !9
  %44 = getelementptr inbounds nuw %struct.stbi__bmp_data, ptr %43, i32 0, i32 5
  store i32 0, ptr %44, align 4, !tbaa !67
  %45 = load ptr, ptr %4, align 8, !tbaa !9
  %46 = getelementptr inbounds nuw %struct.stbi__bmp_data, ptr %45, i32 0, i32 4
  store i32 0, ptr %46, align 4, !tbaa !66
  %47 = load ptr, ptr %4, align 8, !tbaa !9
  %48 = getelementptr inbounds nuw %struct.stbi__bmp_data, ptr %47, i32 0, i32 3
  store i32 0, ptr %48, align 4, !tbaa !65
  br label %49

49:                                               ; preds = %40, %29
  br label %50

50:                                               ; preds = %49, %17
  store i32 1, ptr %3, align 4
  br label %52

51:                                               ; preds = %9
  store i32 0, ptr %3, align 4
  br label %52

52:                                               ; preds = %51, %50, %8
  %53 = load i32, ptr %3, align 4
  ret i32 %53
}