; Function Attrs: mustprogress nofree norecurse nosync nounwind willreturn memory(argmem: readwrite) uwtable
define internal fastcc void @_ZL27stbi__bmp_set_mask_defaultsP14stbi__bmp_datai(ptr noundef nonnull captures(none) %0, i32 noundef range(i32 -2147483648, 3) %1) unnamed_addr #16 {
  %3 = icmp eq i32 %1, 0
  br i1 %3, label %4, label %15

4:                                                ; preds = %2
  %5 = load i32, ptr %0, align 4, !tbaa !57
  %6 = getelementptr inbounds nuw i8, ptr %0, i64 16
  %7 = getelementptr inbounds nuw i8, ptr %0, i64 12
  switch i32 %5, label %14 [
    i32 16, label %8
    i32 32, label %10
  ]

8:                                                ; preds = %4
  store i32 31744, ptr %7, align 4, !tbaa !61
  store i32 992, ptr %6, align 4, !tbaa !62
  %9 = getelementptr inbounds nuw i8, ptr %0, i64 20
  store i32 31, ptr %9, align 4, !tbaa !63
  br label %15

10:                                               ; preds = %4
  store i32 16711680, ptr %7, align 4, !tbaa !61
  store i32 65280, ptr %6, align 4, !tbaa !62
  %11 = getelementptr inbounds nuw i8, ptr %0, i64 20
  store i32 255, ptr %11, align 4, !tbaa !63
  %12 = getelementptr inbounds nuw i8, ptr %0, i64 24
  store i32 -16777216, ptr %12, align 4, !tbaa !64
  %13 = getelementptr inbounds nuw i8, ptr %0, i64 28
  store i32 0, ptr %13, align 4, !tbaa !55
  br label %15

14:                                               ; preds = %4
  tail call void @llvm.memset.p0.i64(ptr noundef nonnull align 4 dereferenceable(16) %7, i8 0, i64 16, i1 false)
  br label %15

15:                                               ; preds = %2, %8, %14, %10
  ret void
}